; Function Attrs: mustprogress uwtable
define dso_local void @_ZN16DefaultOutputMgrC2EPSt14basic_ofstreamIcSt11char_traitsIcEE(ptr noundef nonnull align 8 dereferenceable(40) %0, ptr noundef %1) unnamed_addr #5 align 2 {
  tail call void @_ZN9OutputMgrC2Ev(ptr noundef nonnull align 8 dereferenceable(8) %0)
  store ptr getelementptr inbounds nuw inrange(-16, 72) (i8, ptr @_ZTV16DefaultOutputMgr, i64 16), ptr %0, align 8, !tbaa !15
  %3 = getelementptr inbounds nuw i8, ptr %0, i64 8
  tail call void @llvm.memset.p0.i64(ptr noundef nonnull align 8 dereferenceable(24) %3, i8 0, i64 24, i1 false)
  %4 = getelementptr inbounds nuw i8, ptr %0, i64 32
  store ptr %1, ptr %4, align 8, !tbaa !17
  ret void
}